target datalayout = "e-m:e-p270:32:32-p271:32:32-p272:64:64-i64:64-i128:128-f80:128-n8:16:32:64-S128"
target triple = "x86_64-pc-linux-gnu"

%struct.expert_field = type { i32, i32 }
%struct.nstime_t = type { i64, i32 }
%struct._packet_info = type { ptr, ptr, i32, i32, %struct.nstime_t, %struct.nstime_t, %struct.nstime_t, i8, ptr, ptr, ptr, ptr, %struct._address, %struct._address, %struct._address, %struct._address, %struct._address, %struct._address, i32, ptr, i8, [3 x i8], %struct.anon, i32, i32, i32, i32, ptr, i8, ptr, ptr, i16, i16, i32, i32, i16, i32, i32, ptr, ptr, ptr, i8, i8, i16, i16, i16, i32, i16, i16, ptr, ptr, ptr, ptr, ptr, i32, i32 }
%struct._address = type { i32, i32, ptr, ptr }
%struct.anon = type { i8, [3 x i8] }
%struct._offset_length_buffer_t = type { i32, i32, i32, i32, i32, i32 }

@hf_smb2_olb_length = internal global i32 0, align 4
@hf_smb2_olb_offset = internal global i32 0, align 4
@hf_smb2_reserved = internal global i32 0, align 4
@ett_smb2_olb = internal global i32 0, align 4
@ei_smb2_invalid_length = internal global %struct.expert_field zeroinitializer, align 4
@.str.1550 = private unnamed_addr constant [40 x i8] c"Invalid offset/length. Malformed packet\00", align 1
@.str.1551 = private unnamed_addr constant [20 x i8] c" [Malformed packet]\00", align 1
@.str.2147 = private unnamed_addr constant [10 x i8] c": NO DATA\00", align 1

; Function Attrs: null_pointer_is_valid sspstrong uwtable
define internal void @dissect_smb2_olb_buffer(ptr noundef %0, ptr noundef %1, ptr noundef %2, ptr noundef %3, ptr noundef %4, ptr noundef %5) #0 {
  %7 = alloca ptr, align 8
  %8 = alloca ptr, align 8
  %9 = alloca ptr, align 8
  %10 = alloca ptr, align 8
  %11 = alloca ptr, align 8
  %12 = alloca ptr, align 8
  %13 = alloca i32, align 4
  %14 = alloca i32, align 4
  %15 = alloca ptr, align 8
  %16 = alloca ptr, align 8
  %17 = alloca ptr, align 8
  %18 = alloca i32, align 4
  %19 = alloca i32, align 4
  store ptr %0, ptr %7, align 8
  store ptr %1, ptr %8, align 8
  store ptr %2, ptr %9, align 8
  store ptr %3, ptr %10, align 8
  store ptr %4, ptr %11, align 8
  store ptr %5, ptr %12, align 8
  call void @llvm.lifetime.start.p0(i64 4, ptr %13) #13
  call void @llvm.lifetime.start.p0(i64 4, ptr %14) #13
  call void @llvm.lifetime.start.p0(i64 8, ptr %15) #13
  store ptr null, ptr %15, align 8
  call void @llvm.lifetime.start.p0(i64 8, ptr %16) #13
  store ptr null, ptr %16, align 8
  call void @llvm.lifetime.start.p0(i64 8, ptr %17) #13
  store ptr null, ptr %17, align 8
  call void @llvm.lifetime.start.p0(i64 4, ptr %18) #13
  %20 = load ptr, ptr %10, align 8
  %21 = getelementptr inbounds nuw %struct._offset_length_buffer_t, ptr %20, i32 0, i32 0
  %22 = load i32, ptr %21, align 4
  store i32 %22, ptr %18, align 4
  %23 = load ptr, ptr %10, align 8
  %24 = getelementptr inbounds nuw %struct._offset_length_buffer_t, ptr %23, i32 0, i32 1
  %25 = load i32, ptr %24, align 4
  store i32 %25, ptr %13, align 4
  %26 = load ptr, ptr %10, align 8
  %27 = getelementptr inbounds nuw %struct._offset_length_buffer_t, ptr %26, i32 0, i32 0
  %28 = load i32, ptr %27, align 4
  store i32 %28, ptr %14, align 4
  %29 = load ptr, ptr %9, align 8
  %30 = load i32, ptr %14, align 4
  %31 = load i32, ptr %13, align 4
  call void @tvb_ensure_bytes_exist(ptr noundef %29, i32 noundef %30, i32 noundef %31)
  %32 = load i32, ptr %14, align 4
  %33 = load i32, ptr %13, align 4
  %34 = add i32 %32, %33
  %35 = load i32, ptr %14, align 4
  %36 = icmp slt i32 %34, %35
  br i1 %36, label %47, label %37

37:                                               ; preds = %6
  %38 = load i32, ptr %14, align 4
  %39 = load i32, ptr %13, align 4
  %40 = add i32 %38, %39
  %41 = load i32, ptr %14, align 4
  %42 = load ptr, ptr %9, align 8
  %43 = load i32, ptr %14, align 4
  %44 = call i32 @tvb_reported_length_remaining(ptr noundef %42, i32 noundef %43)
  %45 = add i32 %41, %44
  %46 = icmp sgt i32 %40, %45
  br i1 %46, label %47, label %56

47:                                               ; preds = %37, %6
  %48 = load ptr, ptr %8, align 8
  %49 = load ptr, ptr %7, align 8
  %50 = load ptr, ptr %9, align 8
  %51 = load i32, ptr %18, align 4
  %52 = call ptr (ptr, ptr, ptr, ptr, i32, i32, ptr, ...) @proto_tree_add_expert_format(ptr noundef %48, ptr noundef %49, ptr noundef @ei_smb2_invalid_length, ptr noundef %50, i32 noundef %51, i32 noundef -1, ptr noundef @.str.1550)
  %53 = load ptr, ptr %7, align 8
  %54 = getelementptr inbounds nuw %struct._packet_info, ptr %53, i32 0, i32 1
  %55 = load ptr, ptr %54, align 8
  call void @col_append_str(ptr noundef %55, i32 noundef 25, ptr noundef @.str.1551)
  store i32 1, ptr %19, align 4
  br label %202

56:                                               ; preds = %37
  %57 = load ptr, ptr %10, align 8
  %58 = getelementptr inbounds nuw %struct._offset_length_buffer_t, ptr %57, i32 0, i32 4
  %59 = load i32, ptr %58, align 4
  switch i32 %59, label %143 [
    i32 0, label %60
    i32 1, label %75
    i32 2, label %90
    i32 3, label %113
    i32 4, label %128
  ]

60:                                               ; preds = %56
  %61 = load ptr, ptr %8, align 8
  %62 = load i32, ptr @hf_smb2_olb_offset, align 4
  %63 = load ptr, ptr %9, align 8
  %64 = load ptr, ptr %10, align 8
  %65 = getelementptr inbounds nuw %struct._offset_length_buffer_t, ptr %64, i32 0, i32 2
  %66 = load i32, ptr %65, align 4
  %67 = call ptr @proto_tree_add_item(ptr noundef %61, i32 noundef %62, ptr noundef %63, i32 noundef %66, i32 noundef 2, i32 noundef -2147483648)
  %68 = load ptr, ptr %8, align 8
  %69 = load i32, ptr @hf_smb2_olb_length, align 4
  %70 = load ptr, ptr %9, align 8
  %71 = load ptr, ptr %10, align 8
  %72 = getelementptr inbounds nuw %struct._offset_length_buffer_t, ptr %71, i32 0, i32 3
  %73 = load i32, ptr %72, align 4
  %74 = call ptr @proto_tree_add_item(ptr noundef %68, i32 noundef %69, ptr noundef %70, i32 noundef %73, i32 noundef 2, i32 noundef -2147483648)
  br label %143

75:                                               ; preds = %56
  %76 = load ptr, ptr %8, align 8
  %77 = load i32, ptr @hf_smb2_olb_offset, align 4
  %78 = load ptr, ptr %9, align 8
  %79 = load ptr, ptr %10, align 8
  %80 = getelementptr inbounds nuw %struct._offset_length_buffer_t, ptr %79, i32 0, i32 2
  %81 = load i32, ptr %80, align 4
  %82 = call ptr @proto_tree_add_item(ptr noundef %76, i32 noundef %77, ptr noundef %78, i32 noundef %81, i32 noundef 2, i32 noundef -2147483648)
  %83 = load ptr, ptr %8, align 8
  %84 = load i32, ptr @hf_smb2_olb_length, align 4
  %85 = load ptr, ptr %9, align 8
  %86 = load ptr, ptr %10, align 8
  %87 = getelementptr inbounds nuw %struct._offset_length_buffer_t, ptr %86, i32 0, i32 3
  %88 = load i32, ptr %87, align 4
  %89 = call ptr @proto_tree_add_item(ptr noundef %83, i32 noundef %84, ptr noundef %85, i32 noundef %88, i32 noundef 4, i32 noundef -2147483648)
  br label %143

90:                                               ; preds = %56
  %91 = load ptr, ptr %8, align 8
  %92 = load i32, ptr @hf_smb2_olb_offset, align 4
  %93 = load ptr, ptr %9, align 8
  %94 = load ptr, ptr %10, align 8
  %95 = getelementptr inbounds nuw %struct._offset_length_buffer_t, ptr %94, i32 0, i32 2
  %96 = load i32, ptr %95, align 4
  %97 = call ptr @proto_tree_add_item(ptr noundef %91, i32 noundef %92, ptr noundef %93, i32 noundef %96, i32 noundef 1, i32 noundef 0)
  %98 = load ptr, ptr %8, align 8
  %99 = load i32, ptr @hf_smb2_reserved, align 4
  %100 = load ptr, ptr %9, align 8
  %101 = load ptr, ptr %10, align 8
  %102 = getelementptr inbounds nuw %struct._offset_length_buffer_t, ptr %101, i32 0, i32 2
  %103 = load i32, ptr %102, align 4
  %104 = add i32 %103, 1
  %105 = call ptr @proto_tree_add_item(ptr noundef %98, i32 noundef %99, ptr noundef %100, i32 noundef %104, i32 noundef 1, i32 noundef 0)
  %106 = load ptr, ptr %8, align 8
  %107 = load i32, ptr @hf_smb2_olb_length, align 4
  %108 = load ptr, ptr %9, align 8
  %109 = load ptr, ptr %10, align 8
  %110 = getelementptr inbounds nuw %struct._offset_length_buffer_t, ptr %109, i32 0, i32 3
  %111 = load i32, ptr %110, align 4
  %112 = call ptr @proto_tree_add_item(ptr noundef %106, i32 noundef %107, ptr noundef %108, i32 noundef %111, i32 noundef 4, i32 noundef -2147483648)
  br label %143

113:                                              ; preds = %56
  %114 = load ptr, ptr %8, align 8
  %115 = load i32, ptr @hf_smb2_olb_offset, align 4
  %116 = load ptr, ptr %9, align 8
  %117 = load ptr, ptr %10, align 8
  %118 = getelementptr inbounds nuw %struct._offset_length_buffer_t, ptr %117, i32 0, i32 2
  %119 = load i32, ptr %118, align 4
  %120 = call ptr @proto_tree_add_item(ptr noundef %114, i32 noundef %115, ptr noundef %116, i32 noundef %119, i32 noundef 4, i32 noundef -2147483648)
  %121 = load ptr, ptr %8, align 8
  %122 = load i32, ptr @hf_smb2_olb_length, align 4
  %123 = load ptr, ptr %9, align 8
  %124 = load ptr, ptr %10, align 8
  %125 = getelementptr inbounds nuw %struct._offset_length_buffer_t, ptr %124, i32 0, i32 3
  %126 = load i32, ptr %125, align 4
  %127 = call ptr @proto_tree_add_item(ptr noundef %121, i32 noundef %122, ptr noundef %123, i32 noundef %126, i32 noundef 4, i32 noundef -2147483648)
  br label %143

128:                                              ; preds = %56
  %129 = load ptr, ptr %8, align 8
  %130 = load i32, ptr @hf_smb2_olb_length, align 4
  %131 = load ptr, ptr %9, align 8
  %132 = load ptr, ptr %10, align 8
  %133 = getelementptr inbounds nuw %struct._offset_length_buffer_t, ptr %132, i32 0, i32 3
  %134 = load i32, ptr %133, align 4
  %135 = call ptr @proto_tree_add_item(ptr noundef %129, i32 noundef %130, ptr noundef %131, i32 noundef %134, i32 noundef 4, i32 noundef -2147483648)
  %136 = load ptr, ptr %8, align 8
  %137 = load i32, ptr @hf_smb2_olb_offset, align 4
  %138 = load ptr, ptr %9, align 8
  %139 = load ptr, ptr %10, align 8
  %140 = getelementptr inbounds nuw %struct._offset_length_buffer_t, ptr %139, i32 0, i32 2
  %141 = load i32, ptr %140, align 4
  %142 = call ptr @proto_tree_add_item(ptr noundef %136, i32 noundef %137, ptr noundef %138, i32 noundef %141, i32 noundef 4, i32 noundef -2147483648)
  br label %143

143:                                              ; preds = %56, %128, %113, %90, %75, %60
  %144 = load ptr, ptr %10, align 8
  %145 = getelementptr inbounds nuw %struct._offset_length_buffer_t, ptr %144, i32 0, i32 5
  %146 = load i32, ptr %145, align 4
  %147 = icmp eq i32 %146, -1
  br i1 %147, label %148, label %151

148:                                              ; preds = %143
  %149 = load ptr, ptr %8, align 8
  store ptr %149, ptr %15, align 8
  %150 = load ptr, ptr %8, align 8
  store ptr %150, ptr %16, align 8
  br label %167

151:                                              ; preds = %143
  %152 = load ptr, ptr %8, align 8
  %153 = icmp ne ptr %152, null
  br i1 %153, label %154, label %166

154:                                              ; preds = %151
  %155 = load ptr, ptr %8, align 8
  %156 = load ptr, ptr %10, align 8
  %157 = getelementptr inbounds nuw %struct._offset_length_buffer_t, ptr %156, i32 0, i32 5
  %158 = load i32, ptr %157, align 4
  %159 = load ptr, ptr %9, align 8
  %160 = load i32, ptr %18, align 4
  %161 = load i32, ptr %13, align 4
  %162 = call ptr @proto_tree_add_item(ptr noundef %155, i32 noundef %158, ptr noundef %159, i32 noundef %160, i32 noundef %161, i32 noundef 0)
  store ptr %162, ptr %15, align 8
  %163 = load ptr, ptr %15, align 8
  %164 = load i32, ptr @ett_smb2_olb, align 4
  %165 = call ptr @proto_item_add_subtree(ptr noundef %163, i32 noundef %164)
  store ptr %165, ptr %16, align 8
  br label %166

166:                                              ; preds = %154, %151
  br label %167

167:                                              ; preds = %166, %148
  %168 = load i32, ptr %14, align 4
  %169 = icmp eq i32 %168, 0
  br i1 %169, label %173, label %170

170:                                              ; preds = %167
  %171 = load i32, ptr %13, align 4
  %172 = icmp eq i32 %171, 0
  br i1 %172, label %173, label %175

173:                                              ; preds = %170, %167
  %174 = load ptr, ptr %15, align 8
  call void (ptr, ptr, ...) @proto_item_append_text(ptr noundef %174, ptr noundef @.str.2147)
  store i32 1, ptr %19, align 4
  br label %202

175:                                              ; preds = %170
  %176 = load ptr, ptr %12, align 8
  %177 = icmp ne ptr %176, null
  br i1 %177, label %179, label %178

178:                                              ; preds = %175
  store i32 1, ptr %19, align 4
  br label %202

179:                                              ; preds = %175
  %180 = load ptr, ptr %9, align 8
  %181 = load i32, ptr %14, align 4
  %182 = load i32, ptr %13, align 4
  %183 = load ptr, ptr %9, align 8
  %184 = load i32, ptr %14, align 4
  %185 = call i32 @tvb_captured_length_remaining(ptr noundef %183, i32 noundef %184)
  %186 = icmp slt i32 %182, %185
  br i1 %186, label %187, label %189

187:                                              ; preds = %179
  %188 = load i32, ptr %13, align 4
  br label %193

189:                                              ; preds = %179
  %190 = load ptr, ptr %9, align 8
  %191 = load i32, ptr %14, align 4
  %192 = call i32 @tvb_captured_length_remaining(ptr noundef %190, i32 noundef %191)
  br label %193

193:                                              ; preds = %189, %187
  %194 = phi i32 [ %188, %187 ], [ %192, %189 ]
  %195 = load i32, ptr %13, align 4
  %196 = call ptr @tvb_new_subset_length_caplen(ptr noundef %180, i32 noundef %181, i32 noundef %194, i32 noundef %195)
  store ptr %196, ptr %17, align 8
  %197 = load ptr, ptr %12, align 8
  %198 = load ptr, ptr %17, align 8
  %199 = load ptr, ptr %7, align 8
  %200 = load ptr, ptr %16, align 8
  %201 = load ptr, ptr %11, align 8
  call void %197(ptr noundef %198, ptr noundef %199, ptr noundef %200, ptr noundef %201)
  store i32 0, ptr %19, align 4
  br label %202

202:                                              ; preds = %193, %178, %173, %47
  call void @llvm.lifetime.end.p0(i64 4, ptr %18) #13
  call void @llvm.lifetime.end.p0(i64 8, ptr %17) #13
  call void @llvm.lifetime.end.p0(i64 8, ptr %16) #13
  call void @llvm.lifetime.end.p0(i64 8, ptr %15) #13
  call void @llvm.lifetime.end.p0(i64 4, ptr %14) #13
  call void @llvm.lifetime.end.p0(i64 4, ptr %13) #13
  %203 = load i32, ptr %19, align 4
  switch i32 %203, label %205 [
    i32 0, label %204
    i32 1, label %204
  ]

204:                                              ; preds = %202, %202
  ret void

205:                                              ; preds = %202
  unreachable
}