; Function Attrs: null_pointer_is_valid sspstrong uwtable
define internal fastcc void @dissect_smb2_olb_buffer(ptr noundef %0, ptr noundef %1, ptr noundef %2, ptr noundef readonly captures(none) %3, ptr noundef %4, ptr noundef readonly captures(address_is_null) %5) unnamed_addr #0 {
  %7 = load i32, ptr %3, align 4
  %8 = getelementptr inbounds nuw i8, ptr %3, i64 4
  %9 = load i32, ptr %8, align 4
  tail call void @tvb_ensure_bytes_exist(ptr noundef %2, i32 noundef %7, i32 noundef %9)
  %10 = add i32 %9, %7
  %11 = icmp slt i32 %10, %7
  br i1 %11, label %16, label %12

12:                                               ; preds = %6
  %13 = tail call i32 @tvb_reported_length_remaining(ptr noundef %2, i32 noundef %7)
  %14 = add i32 %13, %7
  %15 = icmp sgt i32 %10, %14
  br i1 %15, label %16, label %20

16:                                               ; preds = %12, %6
  %17 = tail call ptr (ptr, ptr, ptr, ptr, i32, i32, ptr, ...) @proto_tree_add_expert_format(ptr noundef %1, ptr noundef %0, ptr noundef nonnull @ei_smb2_invalid_length, ptr noundef %2, i32 noundef %7, i32 noundef -1, ptr noundef nonnull @.str.1550)
  %18 = getelementptr inbounds nuw i8, ptr %0, i64 8
  %19 = load ptr, ptr %18, align 8
  tail call void @col_append_str(ptr noundef %19, i32 noundef 25, ptr noundef nonnull @.str.1551)
  br label %78

20:                                               ; preds = %12
  %21 = getelementptr inbounds nuw i8, ptr %3, i64 16
  %22 = load i32, ptr %21, align 4
  switch i32 %22, label %56 [
    i32 0, label %23
    i32 1, label %28
    i32 2, label %33
    i32 3, label %42
    i32 4, label %47
  ]

23:                                               ; preds = %20
  %24 = load i32, ptr @hf_smb2_olb_offset, align 4
  %25 = getelementptr inbounds nuw i8, ptr %3, i64 8
  %26 = load i32, ptr %25, align 4
  %27 = tail call ptr @proto_tree_add_item(ptr noundef %1, i32 noundef %24, ptr noundef %2, i32 noundef %26, i32 noundef 2, i32 noundef -2147483648)
  br label %.sink.split

28:                                               ; preds = %20
  %29 = load i32, ptr @hf_smb2_olb_offset, align 4
  %30 = getelementptr inbounds nuw i8, ptr %3, i64 8
  %31 = load i32, ptr %30, align 4
  %32 = tail call ptr @proto_tree_add_item(ptr noundef %1, i32 noundef %29, ptr noundef %2, i32 noundef %31, i32 noundef 2, i32 noundef -2147483648)
  br label %.sink.split

33:                                               ; preds = %20
  %34 = load i32, ptr @hf_smb2_olb_offset, align 4
  %35 = getelementptr inbounds nuw i8, ptr %3, i64 8
  %36 = load i32, ptr %35, align 4
  %37 = tail call ptr @proto_tree_add_item(ptr noundef %1, i32 noundef %34, ptr noundef %2, i32 noundef %36, i32 noundef 1, i32 noundef 0)
  %38 = load i32, ptr @hf_smb2_reserved, align 4
  %39 = load i32, ptr %35, align 4
  %40 = add i32 %39, 1
  %41 = tail call ptr @proto_tree_add_item(ptr noundef %1, i32 noundef %38, ptr noundef %2, i32 noundef %40, i32 noundef 1, i32 noundef 0)
  br label %.sink.split

42:                                               ; preds = %20
  %43 = load i32, ptr @hf_smb2_olb_offset, align 4
  %44 = getelementptr inbounds nuw i8, ptr %3, i64 8
  %45 = load i32, ptr %44, align 4
  %46 = tail call ptr @proto_tree_add_item(ptr noundef %1, i32 noundef %43, ptr noundef %2, i32 noundef %45, i32 noundef 4, i32 noundef -2147483648)
  br label %.sink.split

47:                                               ; preds = %20
  %48 = load i32, ptr @hf_smb2_olb_length, align 4
  %49 = getelementptr inbounds nuw i8, ptr %3, i64 12
  %50 = load i32, ptr %49, align 4
  %51 = tail call ptr @proto_tree_add_item(ptr noundef %1, i32 noundef %48, ptr noundef %2, i32 noundef %50, i32 noundef 4, i32 noundef -2147483648)
  br label %.sink.split

.sink.split:                                      ; preds = %23, %28, %33, %42, %47
  %hf_smb2_olb_offset.sink = phi ptr [ @hf_smb2_olb_offset, %47 ], [ @hf_smb2_olb_length, %42 ], [ @hf_smb2_olb_length, %33 ], [ @hf_smb2_olb_length, %28 ], [ @hf_smb2_olb_length, %23 ]
  %.sink92 = phi i64 [ 8, %47 ], [ 12, %42 ], [ 12, %33 ], [ 12, %28 ], [ 12, %23 ]
  %.sink90 = phi i32 [ 4, %47 ], [ 4, %42 ], [ 4, %33 ], [ 4, %28 ], [ 2, %23 ]
  %52 = load i32, ptr %hf_smb2_olb_offset.sink, align 4
  %53 = getelementptr inbounds nuw i8, ptr %3, i64 %.sink92
  %54 = load i32, ptr %53, align 4
  %55 = tail call ptr @proto_tree_add_item(ptr noundef %1, i32 noundef %52, ptr noundef %2, i32 noundef %54, i32 noundef %.sink90, i32 noundef -2147483648)
  br label %56

56:                                               ; preds = %.sink.split, %20
  %57 = getelementptr inbounds nuw i8, ptr %3, i64 20
  %58 = load i32, ptr %57, align 4
  %59 = icmp eq i32 %58, -1
  br i1 %59, label %65, label %60

60:                                               ; preds = %56
  %.not = icmp eq ptr %1, null
  br i1 %.not, label %65, label %61

61:                                               ; preds = %60
  %62 = tail call ptr @proto_tree_add_item(ptr noundef nonnull %1, i32 noundef %58, ptr noundef %2, i32 noundef %7, i32 noundef %9, i32 noundef 0)
  %63 = load i32, ptr @ett_smb2_olb, align 4
  %64 = tail call ptr @proto_item_add_subtree(ptr noundef %62, i32 noundef %63)
  br label %65

65:                                               ; preds = %56, %60, %61
  %.081 = phi ptr [ %64, %61 ], [ null, %60 ], [ %1, %56 ]
  %.0 = phi ptr [ %62, %61 ], [ null, %60 ], [ %1, %56 ]
  %66 = icmp eq i32 %7, 0
  %67 = icmp eq i32 %9, 0
  %or.cond = or i1 %66, %67
  br i1 %or.cond, label %68, label %69

68:                                               ; preds = %65
  tail call void (ptr, ptr, ...) @proto_item_append_text(ptr noundef %.0, ptr noundef nonnull @.str.2147)
  br label %78

69:                                               ; preds = %65
  %.not88 = icmp eq ptr %5, null
  br i1 %.not88, label %78, label %70

70:                                               ; preds = %69
  %71 = tail call i32 @tvb_captured_length_remaining(ptr noundef %2, i32 noundef %7)
  %72 = icmp slt i32 %9, %71
  br i1 %72, label %75, label %73

73:                                               ; preds = %70
  %74 = tail call i32 @tvb_captured_length_remaining(ptr noundef %2, i32 noundef %7)
  br label %75

75:                                               ; preds = %70, %73
  %76 = phi i32 [ %74, %73 ], [ %9, %70 ]
  %77 = tail call ptr @tvb_new_subset_length_caplen(ptr noundef %2, i32 noundef %7, i32 noundef %76, i32 noundef %9)
  tail call void %5(ptr noundef %77, ptr noundef %0, ptr noundef %.081, ptr noundef %4)
  br label %78

78:                                               ; preds = %69, %75, %68, %16
  ret void
}